; Function Attrs: nounwind uwtable
define dso_local i64 @pg_stat_get_numscans(ptr noundef readonly captures(none) %0) local_unnamed_addr #0 {
  %2 = getelementptr inbounds nuw i8, ptr %0, i64 32
  %3 = load i64, ptr %2, align 8
  %4 = trunc i64 %3 to i32
  %5 = tail call ptr @pgstat_fetch_stat_tabentry(i32 noundef %4) #9
  %6 = icmp eq ptr %5, null
  br i1 %6, label %9, label %7

7:                                                ; preds = %1
  %8 = load i64, ptr %5, align 8
  br label %9

9:                                                ; preds = %1, %7
  %.0 = phi i64 [ %8, %7 ], [ 0, %1 ]
  ret i64 %.0
}